; Function Attrs: mustprogress uwtable
define void @_ZN9grpc_core14ConfigSelector18GetFromChannelArgsERK17grpc_channel_args(ptr noalias nocapture writeonly sret(%"class.grpc_core::RefCountedPtr") align 8 %agg.result, ptr noundef nonnull align 8 dereferenceable(16) %args) local_unnamed_addr #3 align 2 {
entry:
  %call.i = tail call noundef ptr @_Z22grpc_channel_args_findPK17grpc_channel_argsPKc(ptr noundef nonnull %args, ptr noundef nonnull @.str)
  %cmp.i = icmp eq ptr %call.i, null
  br i1 %cmp.i, label %cond.end, label %lor.lhs.false.i

lor.lhs.false.i:                                  ; preds = %entry
  %0 = load i32, ptr %call.i, align 8
  %cmp1.not.i = icmp eq i32 %0, 2
  br i1 %cmp1.not.i, label %_Z30grpc_channel_args_find_pointerIN9grpc_core14ConfigSelectorEEPT_PK17grpc_channel_argsPKc.exit, label %cond.end

_Z30grpc_channel_args_find_pointerIN9grpc_core14ConfigSelectorEEPT_PK17grpc_channel_argsPKc.exit: ; preds = %lor.lhs.false.i
  %value.i = getelementptr inbounds i8, ptr %call.i, i64 16
  %1 = load ptr, ptr %value.i, align 8
  %cmp.not = icmp eq ptr %1, null
  br i1 %cmp.not, label %cond.end, label %cond.true

cond.true:                                        ; preds = %_Z30grpc_channel_args_find_pointerIN9grpc_core14ConfigSelectorEEPT_PK17grpc_channel_argsPKc.exit
  %refs_.i.i = getelementptr inbounds i8, ptr %1, i64 8
  %2 = atomicrmw add ptr %refs_.i.i, i64 1 monotonic, align 8, !noalias !4
  br label %cond.end

cond.end:                                         ; preds = %_Z30grpc_channel_args_find_pointerIN9grpc_core14ConfigSelectorEEPT_PK17grpc_channel_argsPKc.exit, %lor.lhs.false.i, %entry, %cond.true
  %storemerge = phi ptr [ %1, %cond.true ], [ null, %entry ], [ null, %lor.lhs.false.i ], [ null, %_Z30grpc_channel_args_find_pointerIN9grpc_core14ConfigSelectorEEPT_PK17grpc_channel_argsPKc.exit ]
  store ptr %storemerge, ptr %agg.result, align 8
  ret void
}